target datalayout = "e-m:e-p270:32:32-p271:32:32-p272:64:64-i64:64-i128:128-f80:128-n8:16:32:64-S128"
target triple = "x86_64-pc-linux-gnu"

%struct.b2TreeNode = type { %struct.b2AABB, i64, %union.anon, i32, %union.anon.0, i16, i16 }
%struct.b2AABB = type { %struct.b2Vec2, %struct.b2Vec2 }
%struct.b2Vec2 = type { float, float }
%union.anon = type { i32 }
%union.anon.0 = type { i32 }
%struct.b2DynamicTree = type { ptr, i32, i32, i32, i32, i32, ptr, ptr, ptr, ptr, i32 }

; Function Attrs: nounwind uwtable
define i32 @b2DynamicTree_GetHeight(ptr noundef %0) #0 {
  %2 = alloca i32, align 4
  %3 = alloca ptr, align 8
  store ptr %0, ptr %3, align 8, !tbaa !27
  %4 = load ptr, ptr %3, align 8, !tbaa !27
  %5 = getelementptr inbounds nuw %struct.b2DynamicTree, ptr %4, i32 0, i32 1
  %6 = load i32, ptr %5, align 8, !tbaa !3
  %7 = icmp eq i32 %6, -1
  br i1 %7, label %8, label %9

8:                                                ; preds = %1
  store i32 0, ptr %2, align 4
  br label %21

9:                                                ; preds = %1
  %10 = load ptr, ptr %3, align 8, !tbaa !27
  %11 = getelementptr inbounds nuw %struct.b2DynamicTree, ptr %10, i32 0, i32 0
  %12 = load ptr, ptr %11, align 8, !tbaa !15
  %13 = load ptr, ptr %3, align 8, !tbaa !27
  %14 = getelementptr inbounds nuw %struct.b2DynamicTree, ptr %13, i32 0, i32 1
  %15 = load i32, ptr %14, align 8, !tbaa !3
  %16 = sext i32 %15 to i64
  %17 = getelementptr inbounds %struct.b2TreeNode, ptr %12, i64 %16
  %18 = getelementptr inbounds nuw %struct.b2TreeNode, ptr %17, i32 0, i32 5
  %19 = load i16, ptr %18, align 4, !tbaa !40
  %20 = zext i16 %19 to i32
  store i32 %20, ptr %2, align 4
  br label %21

21:                                               ; preds = %9, %8
  %22 = load i32, ptr %2, align 4
  ret i32 %22
}