; Function Attrs: mustprogress nofree norecurse nosync nounwind willreturn memory(read, inaccessiblemem: none) uwtable
define range(i32 0, 65536) i32 @b2DynamicTree_GetHeight(ptr noundef readonly captures(none) %0) local_unnamed_addr #8 {
  %2 = getelementptr inbounds nuw i8, ptr %0, i64 8
  %3 = load i32, ptr %2, align 8, !tbaa !3
  %4 = icmp eq i32 %3, -1
  br i1 %4, label %11, label %5

5:                                                ; preds = %1
  %6 = load ptr, ptr %0, align 8, !tbaa !15
  %7 = sext i32 %3 to i64
  %8 = getelementptr inbounds %struct.b2TreeNode, ptr %6, i64 %7, i32 5
  %9 = load i16, ptr %8, align 4, !tbaa !33
  %10 = zext i16 %9 to i32
  br label %11

11:                                               ; preds = %1, %5
  %.0 = phi i32 [ %10, %5 ], [ 0, %1 ]
  ret i32 %.0
}